target datalayout = "e-m:e-p270:32:32-p271:32:32-p272:64:64-i64:64-i128:128-f80:128-n8:16:32:64-S128"
target triple = "x86_64-pc-linux-gnu"

%class.symbol = type { ptr }
%class.ref_vector = type { %class.ref_vector_core }
%class.ref_vector_core = type { %class.ref_manager_wrapper, %class.ptr_vector }
%class.ref_manager_wrapper = type { ptr }
%class.ptr_vector = type { %class.vector }
%class.vector = type { ptr }
%class.ref = type { ptr }
%class.check_sat_result = type { ptr, ptr, %class.ref_vector, %class.obj_ref, i32, i32, %class.ref, double }
%class.obj_ref = type { ptr, ptr }
%class.params_ref = type { ptr }
%struct.solver_params = type { ptr, %class.params_ref }
%struct.model_params = type { ptr, %class.params_ref }
%class.solver = type { %class.check_sat_result, %"class.user_propagator::core", %class.params_ref, %class.symbol }
%"class.user_propagator::core" = type { ptr }

@.str.4 = private unnamed_addr constant [7 x i8] c"solver\00", align 1
@.str.32 = private unnamed_addr constant [6 x i8] c"model\00", align 1

; Function Attrs: inlinehint mustprogress nounwind uwtable
define linkonce_odr hidden void @_ZN13solver_paramsD2Ev(ptr noundef nonnull align 8 dereferenceable(16) %0) unnamed_addr #7 comdat align 2 {
  %2 = alloca ptr, align 8
  store ptr %0, ptr %2, align 8, !tbaa !167
  %3 = load ptr, ptr %2, align 8
  %4 = getelementptr inbounds nuw %struct.solver_params, ptr %3, i32 0, i32 1
  call void @_ZN10params_refD1Ev(ptr noundef nonnull align 8 dereferenceable(8) %4) #3
  ret void
}

; Function Attrs: inlinehint mustprogress nounwind uwtable
define linkonce_odr hidden void @_ZN12model_paramsD2Ev(ptr noundef nonnull align 8 dereferenceable(16) %0) unnamed_addr #7 comdat align 2 {
  %2 = alloca ptr, align 8
  store ptr %0, ptr %2, align 8, !tbaa !169
  %3 = load ptr, ptr %2, align 8
  %4 = getelementptr inbounds nuw %struct.model_params, ptr %3, i32 0, i32 1
  call void @_ZN10params_refD1Ev(ptr noundef nonnull align 8 dereferenceable(8) %4) #3
  ret void
}

; Function Attrs: mustprogress uwtable
define linkonce_odr hidden void @_ZN12model_paramsC2ERK10params_ref(ptr noundef nonnull align 8 dereferenceable(16) %0, ptr noundef nonnull align 8 dereferenceable(8) %1) unnamed_addr #4 comdat align 2 {
  %3 = alloca ptr, align 8
  %4 = alloca ptr, align 8
  store ptr %0, ptr %3, align 8, !tbaa !169
  store ptr %1, ptr %4, align 8, !tbaa !77
  %5 = load ptr, ptr %3, align 8
  %6 = getelementptr inbounds nuw %struct.model_params, ptr %5, i32 0, i32 0
  %7 = load ptr, ptr %4, align 8, !tbaa !77
  store ptr %7, ptr %6, align 8, !tbaa !77
  %8 = getelementptr inbounds nuw %struct.model_params, ptr %5, i32 0, i32 1
  call void @_ZN7gparams10get_moduleEPKc(ptr dead_on_unwind writable sret(%class.params_ref) align 8 %8, ptr noundef @.str.32)
  ret void
}

; Function Attrs: mustprogress uwtable
define linkonce_odr hidden void @_ZN13solver_paramsC2ERK10params_ref(ptr noundef nonnull align 8 dereferenceable(16) %0, ptr noundef nonnull align 8 dereferenceable(8) %1) unnamed_addr #4 comdat align 2 {
  %3 = alloca ptr, align 8
  %4 = alloca ptr, align 8
  store ptr %0, ptr %3, align 8, !tbaa !167
  store ptr %1, ptr %4, align 8, !tbaa !77
  %5 = load ptr, ptr %3, align 8
  %6 = getelementptr inbounds nuw %struct.solver_params, ptr %5, i32 0, i32 0
  %7 = load ptr, ptr %4, align 8, !tbaa !77
  store ptr %7, ptr %6, align 8, !tbaa !77
  %8 = getelementptr inbounds nuw %struct.solver_params, ptr %5, i32 0, i32 1
  call void @_ZN7gparams10get_moduleEPKc(ptr dead_on_unwind writable sret(%class.params_ref) align 8 %8, ptr noundef @.str.4)
  ret void
}

; Function Attrs: mustprogress uwtable
define hidden void @_ZN6solver20collect_param_descrsER12param_descrs(ptr noundef nonnull align 8 dereferenceable(96) %0, ptr noundef nonnull align 8 dereferenceable(8) %1) unnamed_addr #4 align 2 personality ptr @__gxx_personality_v0 {
  %3 = alloca ptr, align 8
  %4 = alloca ptr, align 8
  %5 = alloca %struct.solver_params, align 8
  %6 = alloca ptr, align 8
  %7 = alloca i32, align 4
  %8 = alloca %struct.model_params, align 8
  store ptr %0, ptr %3, align 8, !tbaa !3
  store ptr %1, ptr %4, align 8, !tbaa !165
  %9 = load ptr, ptr %3, align 8
  call void @llvm.lifetime.start.p0(i64 16, ptr %5) #3
  %10 = getelementptr inbounds nuw %class.solver, ptr %9, i32 0, i32 2
  call void @_ZN13solver_paramsC2ERK10params_ref(ptr noundef nonnull align 8 dereferenceable(16) %5, ptr noundef nonnull align 8 dereferenceable(8) %10)
  %11 = load ptr, ptr %4, align 8, !tbaa !165
  invoke void @_ZN13solver_params20collect_param_descrsER12param_descrs(ptr noundef nonnull align 8 dereferenceable(8) %11)
          to label %12 unwind label %25

12:                                               ; preds = %2
  call void @llvm.lifetime.start.p0(i64 16, ptr %8) #3
  %13 = getelementptr inbounds nuw %class.solver, ptr %9, i32 0, i32 2
  invoke void @_ZN12model_paramsC2ERK10params_ref(ptr noundef nonnull align 8 dereferenceable(16) %8, ptr noundef nonnull align 8 dereferenceable(8) %13)
          to label %14 unwind label %29

14:                                               ; preds = %12
  %15 = load ptr, ptr %4, align 8, !tbaa !165
  invoke void @_ZN12model_params20collect_param_descrsER12param_descrs(ptr noundef nonnull align 8 dereferenceable(8) %15)
          to label %16 unwind label %33

16:                                               ; preds = %14
  %17 = load ptr, ptr %4, align 8, !tbaa !165
  invoke void @_Z14insert_timeoutR12param_descrs(ptr noundef nonnull align 8 dereferenceable(8) %17)
          to label %18 unwind label %33

18:                                               ; preds = %16
  %19 = load ptr, ptr %4, align 8, !tbaa !165
  invoke void @_Z13insert_rlimitR12param_descrs(ptr noundef nonnull align 8 dereferenceable(8) %19)
          to label %20 unwind label %33

20:                                               ; preds = %18
  %21 = load ptr, ptr %4, align 8, !tbaa !165
  invoke void @_Z17insert_max_memoryR12param_descrs(ptr noundef nonnull align 8 dereferenceable(8) %21)
          to label %22 unwind label %33

22:                                               ; preds = %20
  %23 = load ptr, ptr %4, align 8, !tbaa !165
  invoke void @_Z13insert_ctrl_cR12param_descrs(ptr noundef nonnull align 8 dereferenceable(8) %23)
          to label %24 unwind label %33

24:                                               ; preds = %22
  call void @_ZN12model_paramsD2Ev(ptr noundef nonnull align 8 dereferenceable(16) %8) #3
  call void @llvm.lifetime.end.p0(i64 16, ptr %8) #3
  call void @_ZN13solver_paramsD2Ev(ptr noundef nonnull align 8 dereferenceable(16) %5) #3
  call void @llvm.lifetime.end.p0(i64 16, ptr %5) #3
  ret void

25:                                               ; preds = %2
  %26 = landingpad { ptr, i32 }
          cleanup
  %27 = extractvalue { ptr, i32 } %26, 0
  store ptr %27, ptr %6, align 8
  %28 = extractvalue { ptr, i32 } %26, 1
  store i32 %28, ptr %7, align 4
  br label %38

29:                                               ; preds = %12
  %30 = landingpad { ptr, i32 }
          cleanup
  %31 = extractvalue { ptr, i32 } %30, 0
  store ptr %31, ptr %6, align 8
  %32 = extractvalue { ptr, i32 } %30, 1
  store i32 %32, ptr %7, align 4
  br label %37

33:                                               ; preds = %22, %20, %18, %16, %14
  %34 = landingpad { ptr, i32 }
          cleanup
  %35 = extractvalue { ptr, i32 } %34, 0
  store ptr %35, ptr %6, align 8
  %36 = extractvalue { ptr, i32 } %34, 1
  store i32 %36, ptr %7, align 4
  call void @_ZN12model_paramsD2Ev(ptr noundef nonnull align 8 dereferenceable(16) %8) #3
  br label %37

37:                                               ; preds = %33, %29
  call void @llvm.lifetime.end.p0(i64 16, ptr %8) #3
  br label %38

38:                                               ; preds = %37, %25
  call void @_ZN13solver_paramsD2Ev(ptr noundef nonnull align 8 dereferenceable(16) %5) #3
  call void @llvm.lifetime.end.p0(i64 16, ptr %5) #3
  br label %39

39:                                               ; preds = %38
  %40 = load ptr, ptr %6, align 8
  %41 = load i32, ptr %7, align 4
  %42 = insertvalue { ptr, i32 } poison, ptr %40, 0
  %43 = insertvalue { ptr, i32 } %42, i32 %41, 1
  resume { ptr, i32 } %43
}