; Function Attrs: mustprogress uwtable
define hidden void @_ZN6solver20collect_param_descrsER12param_descrs(ptr noundef nonnull align 8 dereferenceable(96) %0, ptr noundef nonnull align 8 dereferenceable(8) %1) unnamed_addr #3 align 2 personality ptr @__gxx_personality_v0 {
  %3 = alloca %struct.solver_params, align 8
  %4 = alloca %struct.model_params, align 8
  call void @llvm.lifetime.start.p0(i64 16, ptr nonnull %3) #25
  %5 = getelementptr inbounds nuw i8, ptr %0, i64 80
  store ptr %5, ptr %3, align 8, !tbaa !188
  %6 = getelementptr inbounds nuw i8, ptr %3, i64 8
  call void @_ZN7gparams10get_moduleEPKc(ptr dead_on_unwind nonnull writable sret(%class.params_ref) align 8 %6, ptr noundef nonnull @.str.4)
  invoke void @_ZN13solver_params20collect_param_descrsER12param_descrs(ptr noundef nonnull align 8 dereferenceable(8) %1)
          to label %7 unwind label %14

7:                                                ; preds = %2
  call void @llvm.lifetime.start.p0(i64 16, ptr nonnull %4) #25
  store ptr %5, ptr %4, align 8, !tbaa !188
  %8 = getelementptr inbounds nuw i8, ptr %4, i64 8
  invoke void @_ZN7gparams10get_moduleEPKc(ptr dead_on_unwind nonnull writable sret(%class.params_ref) align 8 %8, ptr noundef nonnull @.str.32)
          to label %_ZN12model_paramsC2ERK10params_ref.exit unwind label %16

_ZN12model_paramsC2ERK10params_ref.exit:          ; preds = %7
  invoke void @_ZN12model_params20collect_param_descrsER12param_descrs(ptr noundef nonnull align 8 dereferenceable(8) %1)
          to label %9 unwind label %18

9:                                                ; preds = %_ZN12model_paramsC2ERK10params_ref.exit
  invoke void @_Z14insert_timeoutR12param_descrs(ptr noundef nonnull align 8 dereferenceable(8) %1)
          to label %10 unwind label %18

10:                                               ; preds = %9
  invoke void @_Z13insert_rlimitR12param_descrs(ptr noundef nonnull align 8 dereferenceable(8) %1)
          to label %11 unwind label %18

11:                                               ; preds = %10
  invoke void @_Z17insert_max_memoryR12param_descrs(ptr noundef nonnull align 8 dereferenceable(8) %1)
          to label %12 unwind label %18

12:                                               ; preds = %11
  invoke void @_Z13insert_ctrl_cR12param_descrs(ptr noundef nonnull align 8 dereferenceable(8) %1)
          to label %13 unwind label %18

13:                                               ; preds = %12
  call void @_ZN10params_refD1Ev(ptr noundef nonnull align 8 dereferenceable(8) %8) #25
  call void @llvm.lifetime.end.p0(i64 16, ptr nonnull %4) #25
  call void @_ZN10params_refD1Ev(ptr noundef nonnull align 8 dereferenceable(8) %6) #25
  call void @llvm.lifetime.end.p0(i64 16, ptr nonnull %3) #25
  ret void

14:                                               ; preds = %2
  %15 = landingpad { ptr, i32 }
          cleanup
  br label %21

16:                                               ; preds = %7
  %17 = landingpad { ptr, i32 }
          cleanup
  br label %20

18:                                               ; preds = %12, %11, %10, %9, %_ZN12model_paramsC2ERK10params_ref.exit
  %19 = landingpad { ptr, i32 }
          cleanup
  call void @_ZN10params_refD1Ev(ptr noundef nonnull align 8 dereferenceable(8) %8) #25
  br label %20

20:                                               ; preds = %18, %16
  %.pn = phi { ptr, i32 } [ %19, %18 ], [ %17, %16 ]
  call void @llvm.lifetime.end.p0(i64 16, ptr nonnull %4) #25
  br label %21

21:                                               ; preds = %20, %14
  %.pn.pn = phi { ptr, i32 } [ %.pn, %20 ], [ %15, %14 ]
  call void @_ZN10params_refD1Ev(ptr noundef nonnull align 8 dereferenceable(8) %6) #25
  call void @llvm.lifetime.end.p0(i64 16, ptr nonnull %3) #25
  resume { ptr, i32 } %.pn.pn
}